GAS LISTING /tmp/ccsAprXT.s 			page 1


   1              		.file	"main.cpp"
   2              		.option pic
   3              		.option norelax
   4              		.text
   5              	.Ltext0:
   6              		.align	2
   7              		.globl	_Z15userMainWrapperPv
   9              	_Z15userMainWrapperPv:
  10              	.LFB41:
  11              		.file 1 "src/main.cpp"
   1:src/main.cpp  **** //
   2:src/main.cpp  **** // Created by os on 12/11/23.
   3:src/main.cpp  **** //
   4:src/main.cpp  **** #include "../test/printing.hpp"
   5:src/main.cpp  **** #include "../h/riscv.hpp"
   6:src/main.cpp  **** #include "../h/MemoryAllocator.hpp"
   7:src/main.cpp  **** #include "../h/syscall_cpp.hpp"
   8:src/main.cpp  **** #include "../h/tcb.hpp"
   9:src/main.cpp  **** 
  10:src/main.cpp  **** 
  11:src/main.cpp  **** extern "C" void supervisorTrap();
  12:src/main.cpp  **** extern "C" void vectorTable();
  13:src/main.cpp  **** //extern void userMain();
  14:src/main.cpp  **** 
  15:src/main.cpp  **** void idleThread(void *){
  16:src/main.cpp  ****     while(true){
  17:src/main.cpp  **** 
  18:src/main.cpp  **** //        print_String("idle");
  19:src/main.cpp  ****         thread_dispatch();
  20:src/main.cpp  ****     }
  21:src/main.cpp  **** }
  22:src/main.cpp  **** thread_t idle_handle = nullptr;
  23:src/main.cpp  **** 
  24:src/main.cpp  **** //int userMain();
  25:src/main.cpp  **** extern void userMain();
  26:src/main.cpp  **** void userMainWrapper(void *){
  12              		.loc 1 26 29
  13              		.cfi_startproc
  14 0000 130101FF 		addi	sp,sp,-16
  15              		.cfi_def_cfa_offset 16
  16 0004 23341100 		sd	ra,8(sp)
  17 0008 23308100 		sd	s0,0(sp)
  18              		.cfi_offset 1, -8
  19              		.cfi_offset 8, -16
  20 000c 13040101 		addi	s0,sp,16
  21              		.cfi_def_cfa 8, 0
  27:src/main.cpp  ****     userMain();
  22              		.loc 1 27 5
  23              		.loc 1 27 13 is_stmt 0
  24 0010 97000000 		call	_Z8userMainv@plt
  24      E7800000 
  25              	.LVL0:
  28:src/main.cpp  **** }
  26              		.loc 1 28 1
  27 0018 83308100 		ld	ra,8(sp)
  28              		.cfi_restore 1
  29 001c 03340100 		ld	s0,0(sp)
GAS LISTING /tmp/ccsAprXT.s 			page 2


  30              		.cfi_restore 8
  31              		.cfi_def_cfa 2, 16
  32 0020 13010101 		addi	sp,sp,16
  33              		.cfi_def_cfa_offset 0
  34 0024 67800000 		jr	ra
  35              		.cfi_endproc
  36              	.LFE41:
  38              		.align	2
  39              		.globl	_Z10idleThreadPv
  41              	_Z10idleThreadPv:
  42              	.LFB40:
  15:src/main.cpp  ****     while(true){
  43              		.loc 1 15 24 is_stmt 1
  44              		.cfi_startproc
  45 0028 130101FF 		addi	sp,sp,-16
  46              		.cfi_def_cfa_offset 16
  47 002c 23341100 		sd	ra,8(sp)
  48 0030 23308100 		sd	s0,0(sp)
  49              		.cfi_offset 1, -8
  50              		.cfi_offset 8, -16
  51 0034 13040101 		addi	s0,sp,16
  52              		.cfi_def_cfa 8, 0
  53              	.L4:
  16:src/main.cpp  **** 
  54              		.loc 1 16 5 discriminator 1
  19:src/main.cpp  ****     }
  55              		.loc 1 19 9 discriminator 1
  19:src/main.cpp  ****     }
  56              		.loc 1 19 24 is_stmt 0 discriminator 1
  57 0038 97000000 		call	_Z15thread_dispatchv@plt
  57      E7800000 
  58              	.LVL1:
  16:src/main.cpp  **** 
  59              		.loc 1 16 5 is_stmt 1 discriminator 1
  60 0040 6FF09FFF 		j	.L4
  61              		.cfi_endproc
  62              	.LFE40:
  64              		.section	.rodata.str1.8,"aMS",@progbits,1
  65              		.align	3
  66              	.LC0:
  67 0000 46494E49 		.string	"FINISHED\n"
  67      53484544 
  67      0A00
  68              		.text
  69              		.align	2
  70              		.globl	main
  72              	main:
  73              	.LFB42:
  29:src/main.cpp  **** 
  30:src/main.cpp  **** int main(){
  74              		.loc 1 30 11
  75              		.cfi_startproc
  76 0044 130101FE 		addi	sp,sp,-32
  77              		.cfi_def_cfa_offset 32
  78 0048 233C1100 		sd	ra,24(sp)
  79 004c 23388100 		sd	s0,16(sp)
  80              		.cfi_offset 1, -8
GAS LISTING /tmp/ccsAprXT.s 			page 3


  81              		.cfi_offset 8, -16
  82 0050 13040102 		addi	s0,sp,32
  83              		.cfi_def_cfa 8, 0
  31:src/main.cpp  **** 
  32:src/main.cpp  ****     Riscv::w_stvec((uint64) &vectorTable | 0b01);
  84              		.loc 1 32 5
  85              		.loc 1 32 19 is_stmt 0
  86 0054 97070000 		la	a5,vectorTable
  86      83B70700 
  87 005c 93E71700 		ori	a5,a5,1
  88              	.LVL2:
  89              	.LBB6:
  90              	.LBB7:
  91              		.file 2 "src/../h/riscv.hpp"
   1:src/../h/riscv.hpp **** //
   2:src/../h/riscv.hpp **** // Created by os on 12/11/23.
   3:src/../h/riscv.hpp **** //
   4:src/../h/riscv.hpp **** 
   5:src/../h/riscv.hpp **** #ifndef PROJECT_BASE_RISCV_HPP
   6:src/../h/riscv.hpp **** #define PROJECT_BASE_RISCV_HPP
   7:src/../h/riscv.hpp **** 
   8:src/../h/riscv.hpp **** #include "../lib/hw.h"
   9:src/../h/riscv.hpp **** 
  10:src/../h/riscv.hpp **** 
  11:src/../h/riscv.hpp **** 
  12:src/../h/riscv.hpp **** class Riscv{
  13:src/../h/riscv.hpp **** public:
  14:src/../h/riscv.hpp **** 
  15:src/../h/riscv.hpp ****     //pop sstatus.spp and sstatus.spie bits (has to be a non inline function)
  16:src/../h/riscv.hpp ****     static void popSppSpie();
  17:src/../h/riscv.hpp **** 
  18:src/../h/riscv.hpp **** //    //push x3..x31 registers on stack
  19:src/../h/riscv.hpp **** //    static void pushRegisters();
  20:src/../h/riscv.hpp **** //    static void popRegisters();
  21:src/../h/riscv.hpp **** 
  22:src/../h/riscv.hpp ****     static uint64 r_scause();
  23:src/../h/riscv.hpp ****     static void w_scause(uint64 scause);
  24:src/../h/riscv.hpp **** 
  25:src/../h/riscv.hpp ****     static uint64 r_sepc();
  26:src/../h/riscv.hpp ****     static void w_sepc(uint64 sepc);
  27:src/../h/riscv.hpp **** 
  28:src/../h/riscv.hpp ****     static uint64 r_stvec();
  29:src/../h/riscv.hpp ****     static void w_stvec(uint64 stvec);
  30:src/../h/riscv.hpp **** 
  31:src/../h/riscv.hpp ****     static uint64 r_stval();
  32:src/../h/riscv.hpp ****     static void w_stval(uint64 stval);
  33:src/../h/riscv.hpp **** 
  34:src/../h/riscv.hpp ****     enum BitMaskSip{
  35:src/../h/riscv.hpp ****         SIP_SSIP = (1 << 1), //IP interrupt pending
  36:src/../h/riscv.hpp ****         SIP_STIP = (1 << 5),
  37:src/../h/riscv.hpp ****         SIP_SEIP = (1 << 9),
  38:src/../h/riscv.hpp ****     };
  39:src/../h/riscv.hpp **** 
  40:src/../h/riscv.hpp ****     static void ms_sip(uint64 mask);
  41:src/../h/riscv.hpp ****     static void mc_sip(uint64 mask);
  42:src/../h/riscv.hpp ****     static uint64 r_sip();
  43:src/../h/riscv.hpp ****     static void w_sip(uint64 sip);
GAS LISTING /tmp/ccsAprXT.s 			page 4


  44:src/../h/riscv.hpp **** 
  45:src/../h/riscv.hpp ****     enum BitMaskSstatus{
  46:src/../h/riscv.hpp ****         SSTATUS_SIE = (1<<1),
  47:src/../h/riscv.hpp ****         SSTATUS_SPIE = (1 << 5),
  48:src/../h/riscv.hpp ****         SSTATUS_SPP = (1 << 8),
  49:src/../h/riscv.hpp ****     };
  50:src/../h/riscv.hpp **** 
  51:src/../h/riscv.hpp ****     static void ms_sstatus(uint64 mask);
  52:src/../h/riscv.hpp ****     static void mc_sstatus(uint64 mask);
  53:src/../h/riscv.hpp ****     static uint64 r_sstatus();
  54:src/../h/riscv.hpp ****     static void w_sstatus(uint64 sstatus);
  55:src/../h/riscv.hpp **** 
  56:src/../h/riscv.hpp ****     //supervisor trap
  57:src/../h/riscv.hpp **** //    static void supervisorTrap();
  58:src/../h/riscv.hpp **** 
  59:src/../h/riscv.hpp **** private:
  60:src/../h/riscv.hpp **** 
  61:src/../h/riscv.hpp ****     //supervisor trap handler
  62:src/../h/riscv.hpp ****     static void handleSupervisorTrap();
  63:src/../h/riscv.hpp ****     static void softwareInterruptHandler();
  64:src/../h/riscv.hpp ****     static void timerInterruptHandler();
  65:src/../h/riscv.hpp ****     static void consoleInterruptHandler();
  66:src/../h/riscv.hpp **** };
  67:src/../h/riscv.hpp **** //inline fje se na mestu koriscenja nece generisati pozivi ovih fja nego se ovaj kod ugradjuje na t
  68:src/../h/riscv.hpp **** // ne generisu se pozivi fja. ne brise se ra registar(nema upisa u njega)
  69:src/../h/riscv.hpp **** inline uint64 Riscv::r_scause() {
  70:src/../h/riscv.hpp ****     uint64 volatile scause;
  71:src/../h/riscv.hpp ****     __asm__ volatile ("csrr %[scause], scause" : [scause] "=r"(scause));
  72:src/../h/riscv.hpp ****     return scause;
  73:src/../h/riscv.hpp **** }
  74:src/../h/riscv.hpp **** 
  75:src/../h/riscv.hpp **** inline void Riscv::w_scause(uint64 scause) {
  76:src/../h/riscv.hpp ****     __asm__ volatile ("csrw scause, %[scause]" : : [scause] "r"(scause));
  77:src/../h/riscv.hpp **** }
  78:src/../h/riscv.hpp **** 
  79:src/../h/riscv.hpp **** inline uint64 Riscv::r_sepc() {
  80:src/../h/riscv.hpp ****     uint64 volatile sepc;
  81:src/../h/riscv.hpp ****     __asm__ volatile ("csrr %[sepc], sepc" : [sepc] "=r"(sepc));
  82:src/../h/riscv.hpp ****     return sepc;
  83:src/../h/riscv.hpp **** }
  84:src/../h/riscv.hpp **** 
  85:src/../h/riscv.hpp **** inline void Riscv::w_sepc(uint64 sepc){
  86:src/../h/riscv.hpp ****     __asm__ volatile ("csrw sepc, %[sepc]" : : [sepc] "r"(sepc));
  87:src/../h/riscv.hpp **** }
  88:src/../h/riscv.hpp **** 
  89:src/../h/riscv.hpp **** inline uint64 Riscv::r_stvec() {
  90:src/../h/riscv.hpp ****     uint64 volatile stvec;
  91:src/../h/riscv.hpp ****     __asm__ volatile ("csrr %[stvec], stvec" : [stvec] "=r"(stvec));
  92:src/../h/riscv.hpp ****     return stvec;
  93:src/../h/riscv.hpp **** }
  94:src/../h/riscv.hpp **** 
  95:src/../h/riscv.hpp **** inline void Riscv::w_stvec(uint64 stvec){
  96:src/../h/riscv.hpp ****     __asm__ volatile ("csrw stvec, %[stvec]" : : [stvec] "r"(stvec));
  92              		.loc 2 96 5 is_stmt 1
  93              		.loc 2 96 69 is_stmt 0
  94              	#APP
  95              	# 96 "src/../h/riscv.hpp" 1
GAS LISTING /tmp/ccsAprXT.s 			page 5


  97              	}
  96              		csrw stvec, a5
  97              	# 0 "" 2
  98              	.LVL3:
  99              	#NO_APP
 100              	.LBE7:
 101              	.LBE6:
  33:src/main.cpp  **** 
  34:src/main.cpp  ****     MemoryAllocator::getInstance();
 102              		.loc 1 34 5 is_stmt 1
 103              		.loc 1 34 33 is_stmt 0
 104 0064 97000000 		call	_ZN15MemoryAllocator11getInstanceEv@plt
 104      E7800000 
 105              	.LVL4:
  35:src/main.cpp  **** //    List();
  36:src/main.cpp  ****     thread_t mainHandle;
 106              		.loc 1 36 5 is_stmt 1
  37:src/main.cpp  ****     thread_create(&mainHandle, nullptr, nullptr);
 107              		.loc 1 37 5
 108              		.loc 1 37 18 is_stmt 0
 109 006c 13060000 		li	a2,0
 110 0070 93050000 		li	a1,0
 111 0074 130584FE 		addi	a0,s0,-24
 112 0078 97000000 		call	_Z13thread_createPP3TCBPFvPvES2_@plt
 112      E7800000 
 113              	.LVL5:
  38:src/main.cpp  ****     TCB::running = mainHandle;
 114              		.loc 1 38 5 is_stmt 1
 115              		.loc 1 38 18 is_stmt 0
 116 0080 97070000 		la	a5,_ZN3TCB7runningE
 116      83B70700 
 117 0088 033784FE 		ld	a4,-24(s0)
 118 008c 23B0E700 		sd	a4,0(a5)
  39:src/main.cpp  ****     Riscv::ms_sstatus(Riscv::SSTATUS_SIE); //supervisor interrupt enable
 119              		.loc 1 39 5 is_stmt 1
 120              	.LVL6:
 121              	.LBB8:
 122              	.LBB9:
  98:src/../h/riscv.hpp **** 
  99:src/../h/riscv.hpp **** inline uint64 Riscv::r_stval(){
 100:src/../h/riscv.hpp ****     uint64 volatile stval;
 101:src/../h/riscv.hpp ****     __asm__ volatile("csrr %[stval], stval" : [stval] "=r"(stval));
 102:src/../h/riscv.hpp ****     return stval;
 103:src/../h/riscv.hpp **** }
 104:src/../h/riscv.hpp **** 
 105:src/../h/riscv.hpp **** inline void Riscv::w_stval(uint64 stval){
 106:src/../h/riscv.hpp ****     __asm__ volatile ("csrw stval, %[stval]" : : [stval] "r"(stval));
 107:src/../h/riscv.hpp **** }
 108:src/../h/riscv.hpp **** 
 109:src/../h/riscv.hpp **** inline void Riscv::ms_sip(uint64 mask){
 110:src/../h/riscv.hpp ****     __asm__ volatile ("csrs sip, %[mask]" : : [mask] "r"(mask));
 111:src/../h/riscv.hpp **** }
 112:src/../h/riscv.hpp **** 
 113:src/../h/riscv.hpp **** inline void Riscv::mc_sip(uint64 mask){
 114:src/../h/riscv.hpp ****     __asm__ volatile ("csrc sip, %[mask]" : : [mask] "r"(mask));
 115:src/../h/riscv.hpp **** }
 116:src/../h/riscv.hpp **** 
GAS LISTING /tmp/ccsAprXT.s 			page 6


 117:src/../h/riscv.hpp **** inline uint64 Riscv::r_sip(){
 118:src/../h/riscv.hpp ****     uint64 volatile sip;
 119:src/../h/riscv.hpp ****     __asm__ volatile ("csrr %[sip], sip" : [sip] "=r"(sip));
 120:src/../h/riscv.hpp ****     return sip;
 121:src/../h/riscv.hpp **** }
 122:src/../h/riscv.hpp **** inline void Riscv::w_sip(uint64 sip){
 123:src/../h/riscv.hpp ****     __asm__ volatile ("csrw sip, %[sip]" : : [sip] "r"(sip));
 124:src/../h/riscv.hpp **** }
 125:src/../h/riscv.hpp **** inline uint64 Riscv::r_sstatus() {
 126:src/../h/riscv.hpp ****     uint64 volatile sstatus;
 127:src/../h/riscv.hpp ****     __asm__ volatile ("csrr %[sstatus], sstatus" : [sstatus] "=r"(sstatus));
 128:src/../h/riscv.hpp ****     return sstatus;
 129:src/../h/riscv.hpp **** }
 130:src/../h/riscv.hpp **** inline void Riscv::w_sstatus(uint64 sstatus){
 131:src/../h/riscv.hpp ****     __asm__ volatile ("csrw sstatus, %[sstatus]" : : [sstatus] "r"(sstatus));
 132:src/../h/riscv.hpp **** }
 133:src/../h/riscv.hpp **** inline void Riscv::ms_sstatus(uint64 mask){
 134:src/../h/riscv.hpp ****     __asm__ volatile ("csrs sstatus, %[mask]" : : [mask] "r"(mask));
 123              		.loc 2 134 5
 124              		.loc 2 134 68 is_stmt 0
 125 0090 93072000 		li	a5,2
 126              	#APP
 127              	# 134 "src/../h/riscv.hpp" 1
 135              	}
 128              		csrs sstatus, a5
 129              	# 0 "" 2
 130              	.LVL7:
 131              	#NO_APP
 132              	.LBE9:
 133              	.LBE8:
  40:src/main.cpp  **** //    thread_create(&idle_handle, &idleThread, nullptr);
  41:src/main.cpp  **** 
  42:src/main.cpp  ****     thread_t userMainHandle;
 134              		.loc 1 42 5 is_stmt 1
  43:src/main.cpp  **** //    int ret;
  44:src/main.cpp  ****     thread_create(&userMainHandle, userMainWrapper, nullptr);
 135              		.loc 1 44 5
 136              		.loc 1 44 18 is_stmt 0
 137 0098 13060000 		li	a2,0
 138 009c 97050000 		lla	a1,_Z15userMainWrapperPv
 138      93850500 
 139 00a4 130504FE 		addi	a0,s0,-32
 140 00a8 97000000 		call	_Z13thread_createPP3TCBPFvPvES2_@plt
 140      E7800000 
 141              	.LVL8:
  45:src/main.cpp  ****     thread_join(userMainHandle);
 142              		.loc 1 45 5 is_stmt 1
 143              		.loc 1 45 16 is_stmt 0
 144 00b0 033504FE 		ld	a0,-32(s0)
 145 00b4 97000000 		call	_Z11thread_joinP3TCB@plt
 145      E7800000 
 146              	.LVL9:
  46:src/main.cpp  **** 
  47:src/main.cpp  **** //    printInteger(ret);
  48:src/main.cpp  ****     printString("FINISHED\n");
 147              		.loc 1 48 5 is_stmt 1
 148              		.loc 1 48 16 is_stmt 0
GAS LISTING /tmp/ccsAprXT.s 			page 7


 149 00bc 17050000 		lla	a0,.LC0
 149      13050500 
 150 00c4 97000000 		call	_Z11printStringPKc@plt
 150      E7800000 
 151              	.LVL10:
  49:src/main.cpp  **** //    return ret;
  50:src/main.cpp  ****     return 0;
 152              		.loc 1 50 5 is_stmt 1
  51:src/main.cpp  **** }
 153              		.loc 1 51 1 is_stmt 0
 154 00cc 13050000 		li	a0,0
 155 00d0 83308101 		ld	ra,24(sp)
 156              		.cfi_restore 1
 157 00d4 03340101 		ld	s0,16(sp)
 158              		.cfi_restore 8
 159              		.cfi_def_cfa 2, 32
 160 00d8 13010102 		addi	sp,sp,32
 161              		.cfi_def_cfa_offset 0
 162 00dc 67800000 		jr	ra
 163              		.cfi_endproc
 164              	.LFE42:
 166              		.globl	idle_handle
 167              		.bss
 168              		.align	3
 171              	idle_handle:
 172 0000 00000000 		.zero	8
 172      00000000 
 173              		.text
 174              	.Letext0:
 175              		.file 3 "src/../test/../h/../lib/hw.h"
 176              		.file 4 "src/../test/../h/syscall_c.hpp"
 177              		.file 5 "src/../h/tcb.hpp"
 178              		.file 6 "src/../h/MemoryAllocator.hpp"
 179              		.file 7 "src/../h/list.hpp"
 180              		.file 8 "src/../test/printing.hpp"
GAS LISTING /tmp/ccsAprXT.s 			page 8

