GAS LISTING /tmp/ccLxYnrj.s 			page 1


   1              		.file	"Scheduler.cpp"
   2              		.option pic
   3              		.option norelax
   4              		.text
   5              	.Ltext0:
   6              		.align	2
   8              	_Z41__static_initialization_and_destruction_0ii:
   9              	.LFB25:
  10              		.file 1 "src/Scheduler.cpp"
   1:src/Scheduler.cpp **** //
   2:src/Scheduler.cpp **** // Created by os on 1/9/24.
   3:src/Scheduler.cpp **** //
   4:src/Scheduler.cpp **** #include "../h/Scheduler.hpp"
   5:src/Scheduler.cpp **** 
   6:src/Scheduler.cpp **** List<TCB> Scheduler::readyQueue;
  11              		.loc 1 6 32
  12              		.cfi_startproc
  13              	.LVL0:
  14 0000 130101FF 		addi	sp,sp,-16
  15              		.cfi_def_cfa_offset 16
  16 0004 23348100 		sd	s0,8(sp)
  17              		.cfi_offset 8, -8
  18 0008 13040101 		addi	s0,sp,16
  19              		.cfi_def_cfa 8, 0
  20              		.loc 1 6 32 is_stmt 0
  21 000c 93071000 		li	a5,1
  22 0010 6308F500 		beq	a0,a5,.L4
  23              	.L1:
  24 0014 03348100 		ld	s0,8(sp)
  25              		.cfi_remember_state
  26              		.cfi_restore 8
  27              		.cfi_def_cfa 2, 16
  28 0018 13010101 		addi	sp,sp,16
  29              		.cfi_def_cfa_offset 0
  30 001c 67800000 		jr	ra
  31              	.L4:
  32              		.cfi_restore_state
  33              		.loc 1 6 32 discriminator 1
  34 0020 B7070100 		li	a5,65536
  35 0024 9387F7FF 		addi	a5,a5,-1
  36 0028 E396F5FE 		bne	a1,a5,.L1
  37              	.LVL1:
  38              	.LBB5:
  39              	.LBB6:
  40              	.LBB7:
  41              		.file 2 "src/../h/list.hpp"
   1:src/../h/list.hpp **** //
   2:src/../h/list.hpp **** // Created by os on 12/11/23.
   3:src/../h/list.hpp **** //
   4:src/../h/list.hpp **** 
   5:src/../h/list.hpp **** #ifndef PROJECT_BASE_LIST_HPP
   6:src/../h/list.hpp **** #define PROJECT_BASE_LIST_HPP
   7:src/../h/list.hpp **** 
   8:src/../h/list.hpp **** //#include "tcb.hpp"
   9:src/../h/list.hpp **** #include "MemoryAllocator.hpp"
  10:src/../h/list.hpp **** 
  11:src/../h/list.hpp **** 
GAS LISTING /tmp/ccLxYnrj.s 			page 2


  12:src/../h/list.hpp **** //class TCB;
  13:src/../h/list.hpp **** template<typename T>
  14:src/../h/list.hpp **** class List {
  15:src/../h/list.hpp **** private:
  16:src/../h/list.hpp ****     struct Elem {
  17:src/../h/list.hpp ****         T *data;
  18:src/../h/list.hpp ****         Elem *next;
  19:src/../h/list.hpp **** 
  20:src/../h/list.hpp ****         Elem(T *data, Elem *next) : data(data), next(next) {
  21:src/../h/list.hpp **** 
  22:src/../h/list.hpp ****         }
  23:src/../h/list.hpp **** 
  24:src/../h/list.hpp ****         void *operator new(size_t size) {
  25:src/../h/list.hpp ****             size_t sizeInBlocks;
  26:src/../h/list.hpp ****             if (size % MEM_BLOCK_SIZE != 0) {
  27:src/../h/list.hpp ****                 sizeInBlocks = (size / MEM_BLOCK_SIZE) + 1;
  28:src/../h/list.hpp ****             } else {
  29:src/../h/list.hpp ****                 sizeInBlocks = (size / MEM_BLOCK_SIZE);
  30:src/../h/list.hpp ****             }
  31:src/../h/list.hpp ****             return MemoryAllocator::mem_alloc(sizeInBlocks);
  32:src/../h/list.hpp ****         }
  33:src/../h/list.hpp **** 
  34:src/../h/list.hpp ****         void operator delete(void *pointer) { MemoryAllocator::mem_free(pointer); }
  35:src/../h/list.hpp **** 
  36:src/../h/list.hpp ****         void *operator new[](size_t size) {
  37:src/../h/list.hpp ****             size_t sizeInBlocks;
  38:src/../h/list.hpp ****             if (size % MEM_BLOCK_SIZE != 0) {
  39:src/../h/list.hpp ****                 sizeInBlocks = (size / MEM_BLOCK_SIZE) + 1;
  40:src/../h/list.hpp ****             } else {
  41:src/../h/list.hpp ****                 sizeInBlocks = (size / MEM_BLOCK_SIZE);
  42:src/../h/list.hpp ****             }
  43:src/../h/list.hpp ****             return MemoryAllocator::mem_alloc(sizeInBlocks);
  44:src/../h/list.hpp ****         }
  45:src/../h/list.hpp **** 
  46:src/../h/list.hpp ****         void operator delete[](void *pointer) { MemoryAllocator::mem_free(pointer); }
  47:src/../h/list.hpp **** 
  48:src/../h/list.hpp ****     };
  49:src/../h/list.hpp **** 
  50:src/../h/list.hpp ****     Elem *head, *tail;
  51:src/../h/list.hpp **** public:
  52:src/../h/list.hpp ****     List() : head(0), tail(0) {}
  42              		.loc 2 52 29
  43 002c 97070000 		lla	a5,.LANCHOR0
  43      93870700 
  44 0034 23B00700 		sd	zero,0(a5)
  45 0038 23B40700 		sd	zero,8(a5)
  46              	.LVL2:
  47              	.LBE7:
  48              	.LBE6:
  49              	.LBE5:
  50              		.loc 1 6 32
  51 003c 6FF09FFD 		j	.L1
  52              		.cfi_endproc
  53              	.LFE25:
  55              		.align	2
  57              	_GLOBAL__sub_I__ZN9Scheduler10readyQueueE:
  58              	.LFB26:
GAS LISTING /tmp/ccLxYnrj.s 			page 3


  59              		.loc 1 6 32 is_stmt 1
  60              		.cfi_startproc
  61 0040 130101FF 		addi	sp,sp,-16
  62              		.cfi_def_cfa_offset 16
  63 0044 23341100 		sd	ra,8(sp)
  64 0048 23308100 		sd	s0,0(sp)
  65              		.cfi_offset 1, -8
  66              		.cfi_offset 8, -16
  67 004c 13040101 		addi	s0,sp,16
  68              		.cfi_def_cfa 8, 0
  69              		.loc 1 6 32 is_stmt 0
  70 0050 B7050100 		li	a1,65536
  71 0054 9385F5FF 		addi	a1,a1,-1
  72 0058 13051000 		li	a0,1
  73 005c 97000000 		call	_Z41__static_initialization_and_destruction_0ii
  73      E7800000 
  74              	.LVL3:
  75 0064 83308100 		ld	ra,8(sp)
  76              		.cfi_restore 1
  77 0068 03340100 		ld	s0,0(sp)
  78              		.cfi_restore 8
  79              		.cfi_def_cfa 2, 16
  80 006c 13010101 		addi	sp,sp,16
  81              		.cfi_def_cfa_offset 0
  82 0070 67800000 		jr	ra
  83              		.cfi_endproc
  84              	.LFE26:
  86              		.section	.init_array,"aw"
  87              		.align	3
  88 0000 00000000 		.dword	_GLOBAL__sub_I__ZN9Scheduler10readyQueueE
  88      00000000 
  89              		.globl	_ZN9Scheduler10readyQueueE
  90              		.bss
  91              		.align	3
  92              		.set	.LANCHOR0,. + 0
  95              	_ZN9Scheduler10readyQueueE:
  96 0000 00000000 		.zero	16
  96      00000000 
  96      00000000 
  96      00000000 
  97              		.text
  98              	.Letext0:
  99              		.file 3 "src/../h/../lib/hw.h"
 100              		.file 4 "src/../h/Scheduler.hpp"
GAS LISTING /tmp/ccLxYnrj.s 			page 4

