GAS LISTING /tmp/ccwNkFux.s 			page 1


   1              		.file	"syscall_c.cpp"
   2              		.option pic
   3              		.option norelax
   4              		.text
   5              	.Ltext0:
   6              		.align	2
   7              		.globl	_Z9mem_allocm
   9              	_Z9mem_allocm:
  10              	.LFB0:
  11              		.file 1 "src/syscall_c.cpp"
   1:src/syscall_c.cpp **** //
   2:src/syscall_c.cpp **** // Created by os on 1/3/24.
   3:src/syscall_c.cpp **** //
   4:src/syscall_c.cpp **** #include "../h/syscall_c.hpp"
   5:src/syscall_c.cpp **** extern "C" void pushRegisters();
   6:src/syscall_c.cpp **** extern "C" void popRegisters();
   7:src/syscall_c.cpp **** 
   8:src/syscall_c.cpp **** void *mem_alloc(size_t size) {
  12              		.loc 1 8 30
  13              		.cfi_startproc
  14              	.LVL0:
  15 0000 130101FF 		addi	sp,sp,-16
  16              		.cfi_def_cfa_offset 16
  17 0004 23348100 		sd	s0,8(sp)
  18              		.cfi_offset 8, -8
  19 0008 13040101 		addi	s0,sp,16
  20              		.cfi_def_cfa 8, 0
   9:src/syscall_c.cpp ****     size_t sizeInBlocks;
  21              		.loc 1 9 5
  10:src/syscall_c.cpp ****     if (size % MEM_BLOCK_SIZE != 0) {
  22              		.loc 1 10 5
  23              		.loc 1 10 14 is_stmt 0
  24 000c 9377F503 		andi	a5,a0,63
  25              		.loc 1 10 5
  26 0010 63840702 		beqz	a5,.L2
  11:src/syscall_c.cpp ****         sizeInBlocks = (size / MEM_BLOCK_SIZE) + 1;
  27              		.loc 1 11 9 is_stmt 1
  28              		.loc 1 11 30 is_stmt 0
  29 0014 13556500 		srli	a0,a0,6
  30              	.LVL1:
  31              		.loc 1 11 22
  32 0018 13051500 		addi	a0,a0,1
  33              	.LVL2:
  34              	.L3:
  12:src/syscall_c.cpp ****     } else {
  13:src/syscall_c.cpp ****         sizeInBlocks = (size / MEM_BLOCK_SIZE);
  14:src/syscall_c.cpp ****     }
  15:src/syscall_c.cpp ****     __asm__ volatile("mv a1, %0" : : "r"(sizeInBlocks));
  35              		.loc 1 15 5 is_stmt 1
  36              		.loc 1 15 56 is_stmt 0
  37              	#APP
  38              	# 15 "src/syscall_c.cpp" 1
  16              	    __asm__ volatile("li a0, 0x01");
  39              		mv a1, a0
  40              	# 0 "" 2
  41              		.loc 1 16 5 is_stmt 1
  42              		.loc 1 16 36 is_stmt 0
GAS LISTING /tmp/ccwNkFux.s 			page 2


  43              	# 16 "src/syscall_c.cpp" 1
  17              	    __asm__ volatile("ecall");
  44              		li a0, 0x01
  45              	# 0 "" 2
  46              		.loc 1 17 5 is_stmt 1
  47              		.loc 1 17 30 is_stmt 0
  48              	# 17 "src/syscall_c.cpp" 1
  18              	
  19:src/syscall_c.cpp ****     void *ret;
  49              		ecall
  50              	# 0 "" 2
  51              		.loc 1 19 5 is_stmt 1
  20:src/syscall_c.cpp ****     __asm__ volatile("mv %0, a0" : "=r"(ret));
  52              		.loc 1 20 5
  53              		.loc 1 20 46 is_stmt 0
  54              	# 20 "src/syscall_c.cpp" 1
  21              	    return ret;
  55              		mv a0, a0
  56              	# 0 "" 2
  57              	.LVL3:
  58              		.loc 1 21 5 is_stmt 1
  22:src/syscall_c.cpp **** }
  59              		.loc 1 22 1 is_stmt 0
  60              	#NO_APP
  61 002c 03348100 		ld	s0,8(sp)
  62              		.cfi_remember_state
  63              		.cfi_restore 8
  64              		.cfi_def_cfa 2, 16
  65 0030 13010101 		addi	sp,sp,16
  66              		.cfi_def_cfa_offset 0
  67 0034 67800000 		jr	ra
  68              	.LVL4:
  69              	.L2:
  70              		.cfi_restore_state
  13:src/syscall_c.cpp ****     }
  71              		.loc 1 13 9 is_stmt 1
  13:src/syscall_c.cpp ****     }
  72              		.loc 1 13 22 is_stmt 0
  73 0038 13556500 		srli	a0,a0,6
  74              	.LVL5:
  75 003c 6FF01FFE 		j	.L3
  76              		.cfi_endproc
  77              	.LFE0:
  79              		.align	2
  80              		.globl	_Z8mem_freePv
  82              	_Z8mem_freePv:
  83              	.LFB1:
  23:src/syscall_c.cpp **** 
  24:src/syscall_c.cpp **** int mem_free(void *ptr) {
  84              		.loc 1 24 25 is_stmt 1
  85              		.cfi_startproc
  86              	.LVL6:
  87 0040 130101FF 		addi	sp,sp,-16
  88              		.cfi_def_cfa_offset 16
  89 0044 23348100 		sd	s0,8(sp)
  90              		.cfi_offset 8, -8
  91 0048 13040101 		addi	s0,sp,16
GAS LISTING /tmp/ccwNkFux.s 			page 3


  92              		.cfi_def_cfa 8, 0
  25:src/syscall_c.cpp ****     __asm__ volatile ("mv a1, %0" : : "r"(ptr));
  93              		.loc 1 25 5
  94              		.loc 1 25 48 is_stmt 0
  95              	#APP
  96              	# 25 "src/syscall_c.cpp" 1
  26              	    __asm__ volatile("li a0, 0x02");
  97              		mv a1, a0
  98              	# 0 "" 2
  99              		.loc 1 26 5 is_stmt 1
 100              		.loc 1 26 36 is_stmt 0
 101              	# 26 "src/syscall_c.cpp" 1
  27              	    __asm__ volatile("ecall");
 102              		li a0, 0x02
 103              	# 0 "" 2
 104              		.loc 1 27 5 is_stmt 1
 105              		.loc 1 27 30 is_stmt 0
 106              	# 27 "src/syscall_c.cpp" 1
  28              	
  29:src/syscall_c.cpp ****     uint64 ret;
 107              		ecall
 108              	# 0 "" 2
 109              		.loc 1 29 5 is_stmt 1
  30:src/syscall_c.cpp ****     __asm__ volatile("mv %0, a0" : "=r"(ret));
 110              		.loc 1 30 5
 111              		.loc 1 30 46 is_stmt 0
 112              	# 30 "src/syscall_c.cpp" 1
  31              	    return (int) ret;
 113              		mv a0, a0
 114              	# 0 "" 2
 115              	.LVL7:
 116              		.loc 1 31 5 is_stmt 1
  32:src/syscall_c.cpp **** }
 117              		.loc 1 32 1 is_stmt 0
 118              	#NO_APP
 119 005c 1B050500 		sext.w	a0,a0
 120              	.LVL8:
 121 0060 03348100 		ld	s0,8(sp)
 122              		.cfi_restore 8
 123              		.cfi_def_cfa 2, 16
 124 0064 13010101 		addi	sp,sp,16
 125              		.cfi_def_cfa_offset 0
 126 0068 67800000 		jr	ra
 127              		.cfi_endproc
 128              	.LFE1:
 130              		.align	2
 131              		.globl	_Z13thread_createPP3TCBPFvPvES2_
 133              	_Z13thread_createPP3TCBPFvPvES2_:
 134              	.LFB2:
  33:src/syscall_c.cpp **** 
  34:src/syscall_c.cpp **** int thread_create(
  35:src/syscall_c.cpp ****         thread_t *handle,
  36:src/syscall_c.cpp ****         void(*start_routine)(void *),
  37:src/syscall_c.cpp ****         void *arg
  38:src/syscall_c.cpp **** ){
 135              		.loc 1 38 2 is_stmt 1
 136              		.cfi_startproc
GAS LISTING /tmp/ccwNkFux.s 			page 4


 137              	.LVL9:
 138 006c 130101FD 		addi	sp,sp,-48
 139              		.cfi_def_cfa_offset 48
 140 0070 23341102 		sd	ra,40(sp)
 141 0074 23308102 		sd	s0,32(sp)
 142 0078 233C9100 		sd	s1,24(sp)
 143 007c 23382101 		sd	s2,16(sp)
 144 0080 23343101 		sd	s3,8(sp)
 145              		.cfi_offset 1, -8
 146              		.cfi_offset 8, -16
 147              		.cfi_offset 9, -24
 148              		.cfi_offset 18, -32
 149              		.cfi_offset 19, -40
 150 0084 13040103 		addi	s0,sp,48
 151              		.cfi_def_cfa 8, 0
 152 0088 13090500 		mv	s2,a0
 153 008c 93840500 		mv	s1,a1
 154 0090 93090600 		mv	s3,a2
  39:src/syscall_c.cpp ****     void* stack = nullptr;
 155              		.loc 1 39 5
 156              	.LVL10:
  40:src/syscall_c.cpp **** //    uint64 rar;
  41:src/syscall_c.cpp **** //    __asm__ volatile("mv %0, ra" : "=r"(rar));
  42:src/syscall_c.cpp ****     if(start_routine){
 157              		.loc 1 42 5
 158 0094 63880504 		beqz	a1,.L9
  43:src/syscall_c.cpp **** 
  44:src/syscall_c.cpp ****         stack = mem_alloc(DEFAULT_STACK_SIZE);
 159              		.loc 1 44 9
 160              		.loc 1 44 26 is_stmt 0
 161 0098 37150000 		li	a0,4096
 162              	.LVL11:
 163 009c 97000000 		call	_Z9mem_allocm
 163      E7800000 
 164              	.LVL12:
 165              	.L8:
  45:src/syscall_c.cpp **** 
  46:src/syscall_c.cpp ****     }
  47:src/syscall_c.cpp ****     __asm__ volatile("mv a7, %[stack]" : : [stack]"r"(stack));
 166              		.loc 1 47 5 is_stmt 1
 167              		.loc 1 47 62 is_stmt 0
 168              	#APP
 169              	# 47 "src/syscall_c.cpp" 1
  48              	    __asm__ volatile("mv a6, %0" : : "r"(arg));
 170              		mv a7, a0
 171              	# 0 "" 2
 172              		.loc 1 48 5 is_stmt 1
 173              		.loc 1 48 47 is_stmt 0
 174              	# 48 "src/syscall_c.cpp" 1
  49              	    __asm__ volatile("mv a2, %0" : : "r"(start_routine));
 175              		mv a6, s3
 176              	# 0 "" 2
 177              		.loc 1 49 5 is_stmt 1
 178              		.loc 1 49 57 is_stmt 0
 179              	# 49 "src/syscall_c.cpp" 1
  50              	    __asm__ volatile("mv a1, %0" : : "r"(handle));
 180              		mv a2, s1
GAS LISTING /tmp/ccwNkFux.s 			page 5


 181              	# 0 "" 2
 182              		.loc 1 50 5 is_stmt 1
 183              		.loc 1 50 50 is_stmt 0
 184              	# 50 "src/syscall_c.cpp" 1
  51              	    __asm__ volatile("li a0, 0x11");
 185              		mv a1, s2
 186              	# 0 "" 2
 187              		.loc 1 51 5 is_stmt 1
 188              		.loc 1 51 36 is_stmt 0
 189              	# 51 "src/syscall_c.cpp" 1
  52              	    __asm__ volatile("ecall");
 190              		li a0, 0x11
 191              	# 0 "" 2
 192              		.loc 1 52 5 is_stmt 1
 193              		.loc 1 52 30 is_stmt 0
 194              	# 52 "src/syscall_c.cpp" 1
  53              	
  54:src/syscall_c.cpp ****     uint64 ret;
 195              		ecall
 196              	# 0 "" 2
 197              		.loc 1 54 5 is_stmt 1
  55:src/syscall_c.cpp **** 
  56:src/syscall_c.cpp ****     __asm__ volatile("mv %0, a1" : "=r"(handle));
 198              		.loc 1 56 5
 199              		.loc 1 56 49 is_stmt 0
 200              	# 56 "src/syscall_c.cpp" 1
  57              	    __asm__ volatile("mv %0, a0" : "=r"(ret));
 201              		mv a5, a1
 202              	# 0 "" 2
 203              	.LVL13:
 204              		.loc 1 57 5 is_stmt 1
 205              		.loc 1 57 46 is_stmt 0
 206              	# 57 "src/syscall_c.cpp" 1
  58              	//    __asm__ volatile("mv ra, %0" : : "r"(rar));
 207              		mv a0, a0
 208              	# 0 "" 2
 209              	.LVL14:
  59:src/syscall_c.cpp ****     return ret;
 210              		.loc 1 59 5 is_stmt 1
  60:src/syscall_c.cpp **** }
 211              		.loc 1 60 1 is_stmt 0
 212              	#NO_APP
 213 00c4 1B050500 		sext.w	a0,a0
 214              	.LVL15:
 215 00c8 83308102 		ld	ra,40(sp)
 216              		.cfi_remember_state
 217              		.cfi_restore 1
 218 00cc 03340102 		ld	s0,32(sp)
 219              		.cfi_restore 8
 220              		.cfi_def_cfa 2, 48
 221 00d0 83348101 		ld	s1,24(sp)
 222              		.cfi_restore 9
 223              	.LVL16:
 224 00d4 03390101 		ld	s2,16(sp)
 225              		.cfi_restore 18
 226 00d8 83398100 		ld	s3,8(sp)
 227              		.cfi_restore 19
GAS LISTING /tmp/ccwNkFux.s 			page 6


 228              	.LVL17:
 229 00dc 13010103 		addi	sp,sp,48
 230              		.cfi_def_cfa_offset 0
 231 00e0 67800000 		jr	ra
 232              	.LVL18:
 233              	.L9:
 234              		.cfi_restore_state
  39:src/syscall_c.cpp **** //    uint64 rar;
 235              		.loc 1 39 11
 236 00e4 13050000 		li	a0,0
 237              	.LVL19:
 238 00e8 6FF0DFFB 		j	.L8
 239              		.cfi_endproc
 240              	.LFE2:
 242              		.align	2
 243              		.globl	_Z11thread_exitv
 245              	_Z11thread_exitv:
 246              	.LFB3:
  61:src/syscall_c.cpp **** int thread_exit() {
 247              		.loc 1 61 19 is_stmt 1
 248              		.cfi_startproc
 249 00ec 130101FF 		addi	sp,sp,-16
 250              		.cfi_def_cfa_offset 16
 251 00f0 23348100 		sd	s0,8(sp)
 252              		.cfi_offset 8, -8
 253 00f4 13040101 		addi	s0,sp,16
 254              		.cfi_def_cfa 8, 0
  62:src/syscall_c.cpp ****     __asm__ volatile("li a0, 0x12");
 255              		.loc 1 62 5
 256              		.loc 1 62 36 is_stmt 0
 257              	#APP
 258              	# 62 "src/syscall_c.cpp" 1
  63              	    __asm__ volatile("ecall");
 259              		li a0, 0x12
 260              	# 0 "" 2
 261              		.loc 1 63 5 is_stmt 1
 262              		.loc 1 63 30 is_stmt 0
 263              	# 63 "src/syscall_c.cpp" 1
  64              	
  65:src/syscall_c.cpp ****     uint64 ret;
 264              		ecall
 265              	# 0 "" 2
 266              		.loc 1 65 5 is_stmt 1
  66:src/syscall_c.cpp ****     __asm__ volatile("mv %0, a0" : "=r"(ret));
 267              		.loc 1 66 5
 268              		.loc 1 66 46 is_stmt 0
 269              	# 66 "src/syscall_c.cpp" 1
  67              	    return (int) ret;
 270              		mv a0, a0
 271              	# 0 "" 2
 272              	.LVL20:
 273              		.loc 1 67 5 is_stmt 1
  68:src/syscall_c.cpp **** }
 274              		.loc 1 68 1 is_stmt 0
 275              	#NO_APP
 276 0104 1B050500 		sext.w	a0,a0
 277              	.LVL21:
GAS LISTING /tmp/ccwNkFux.s 			page 7


 278 0108 03348100 		ld	s0,8(sp)
 279              		.cfi_restore 8
 280              		.cfi_def_cfa 2, 16
 281 010c 13010101 		addi	sp,sp,16
 282              		.cfi_def_cfa_offset 0
 283 0110 67800000 		jr	ra
 284              		.cfi_endproc
 285              	.LFE3:
 287              		.align	2
 288              		.globl	_Z15thread_dispatchv
 290              	_Z15thread_dispatchv:
 291              	.LFB4:
  69:src/syscall_c.cpp **** 
  70:src/syscall_c.cpp **** void thread_dispatch() {
 292              		.loc 1 70 24 is_stmt 1
 293              		.cfi_startproc
 294 0114 130101FF 		addi	sp,sp,-16
 295              		.cfi_def_cfa_offset 16
 296 0118 23348100 		sd	s0,8(sp)
 297              		.cfi_offset 8, -8
 298 011c 13040101 		addi	s0,sp,16
 299              		.cfi_def_cfa 8, 0
  71:src/syscall_c.cpp ****     __asm__ volatile("li a0, 0x13");
 300              		.loc 1 71 5
 301              		.loc 1 71 36 is_stmt 0
 302              	#APP
 303              	# 71 "src/syscall_c.cpp" 1
  72              	    __asm__ volatile("ecall");
 304              		li a0, 0x13
 305              	# 0 "" 2
 306              		.loc 1 72 5 is_stmt 1
 307              		.loc 1 72 30 is_stmt 0
 308              	# 72 "src/syscall_c.cpp" 1
  73              	}
 309              		ecall
 310              	# 0 "" 2
 311              		.loc 1 73 1
 312              	#NO_APP
 313 0128 03348100 		ld	s0,8(sp)
 314              		.cfi_restore 8
 315              		.cfi_def_cfa 2, 16
 316 012c 13010101 		addi	sp,sp,16
 317              		.cfi_def_cfa_offset 0
 318 0130 67800000 		jr	ra
 319              		.cfi_endproc
 320              	.LFE4:
 322              		.align	2
 323              		.globl	_Z11thread_joinP3TCB
 325              	_Z11thread_joinP3TCB:
 326              	.LFB5:
  74:src/syscall_c.cpp **** 
  75:src/syscall_c.cpp **** void thread_join(
  76:src/syscall_c.cpp ****         thread_t handle
  77:src/syscall_c.cpp **** ) {
 327              		.loc 1 77 3 is_stmt 1
 328              		.cfi_startproc
 329              	.LVL22:
GAS LISTING /tmp/ccwNkFux.s 			page 8


 330 0134 130101FF 		addi	sp,sp,-16
 331              		.cfi_def_cfa_offset 16
 332 0138 23348100 		sd	s0,8(sp)
 333              		.cfi_offset 8, -8
 334 013c 13040101 		addi	s0,sp,16
 335              		.cfi_def_cfa 8, 0
  78:src/syscall_c.cpp ****     __asm__ volatile("mv a1, %0" : : "r"(handle));
 336              		.loc 1 78 5
 337              		.loc 1 78 50 is_stmt 0
 338              	#APP
 339              	# 78 "src/syscall_c.cpp" 1
  79              	    __asm__ volatile("li a0, 0x14");
 340              		mv a1, a0
 341              	# 0 "" 2
 342              		.loc 1 79 5 is_stmt 1
 343              		.loc 1 79 36 is_stmt 0
 344              	# 79 "src/syscall_c.cpp" 1
  80              	    __asm__ volatile("ecall");
 345              		li a0, 0x14
 346              	# 0 "" 2
 347              		.loc 1 80 5 is_stmt 1
 348              		.loc 1 80 30 is_stmt 0
 349              	# 80 "src/syscall_c.cpp" 1
  81              	}
 350              		ecall
 351              	# 0 "" 2
 352              		.loc 1 81 1
 353              	#NO_APP
 354 014c 03348100 		ld	s0,8(sp)
 355              		.cfi_restore 8
 356              		.cfi_def_cfa 2, 16
 357 0150 13010101 		addi	sp,sp,16
 358              		.cfi_def_cfa_offset 0
 359 0154 67800000 		jr	ra
 360              		.cfi_endproc
 361              	.LFE5:
 363              		.align	2
 364              		.globl	_Z8sem_openPP4_semj
 366              	_Z8sem_openPP4_semj:
 367              	.LFB6:
  82:src/syscall_c.cpp **** 
  83:src/syscall_c.cpp **** int sem_open(
  84:src/syscall_c.cpp ****         sem_t *handle,
  85:src/syscall_c.cpp ****         unsigned init
  86:src/syscall_c.cpp **** ) {
 368              		.loc 1 86 3 is_stmt 1
 369              		.cfi_startproc
 370              	.LVL23:
 371 0158 130101FF 		addi	sp,sp,-16
 372              		.cfi_def_cfa_offset 16
 373 015c 23348100 		sd	s0,8(sp)
 374              		.cfi_offset 8, -8
 375 0160 13040101 		addi	s0,sp,16
 376              		.cfi_def_cfa 8, 0
  87:src/syscall_c.cpp ****     __asm__ volatile("mv a2, %0" : : "r"(init));
 377              		.loc 1 87 5
 378              		.loc 1 87 48 is_stmt 0
GAS LISTING /tmp/ccwNkFux.s 			page 9


 379              	#APP
 380              	# 87 "src/syscall_c.cpp" 1
  88              	    __asm__ volatile("mv a1, %0" : : "r"(handle));
 381              		mv a2, a1
 382              	# 0 "" 2
 383              		.loc 1 88 5 is_stmt 1
 384              		.loc 1 88 50 is_stmt 0
 385              	# 88 "src/syscall_c.cpp" 1
  89              	    __asm__ volatile("li a0, 0x21");
 386              		mv a1, a0
 387              	# 0 "" 2
 388              		.loc 1 89 5 is_stmt 1
 389              		.loc 1 89 36 is_stmt 0
 390              	# 89 "src/syscall_c.cpp" 1
  90              	    __asm__ volatile("ecall");
 391              		li a0, 0x21
 392              	# 0 "" 2
 393              		.loc 1 90 5 is_stmt 1
 394              		.loc 1 90 30 is_stmt 0
 395              	# 90 "src/syscall_c.cpp" 1
  91              	
  92:src/syscall_c.cpp ****     uint64 ret;
 396              		ecall
 397              	# 0 "" 2
 398              		.loc 1 92 5 is_stmt 1
  93:src/syscall_c.cpp ****     __asm__ volatile("mv %0, a0" : "=r"(ret));
 399              		.loc 1 93 5
 400              		.loc 1 93 46 is_stmt 0
 401              	# 93 "src/syscall_c.cpp" 1
  94              	    return (int) ret;
 402              		mv a0, a0
 403              	# 0 "" 2
 404              	.LVL24:
 405              		.loc 1 94 5 is_stmt 1
  95:src/syscall_c.cpp **** }
 406              		.loc 1 95 1 is_stmt 0
 407              	#NO_APP
 408 0178 1B050500 		sext.w	a0,a0
 409              	.LVL25:
 410 017c 03348100 		ld	s0,8(sp)
 411              		.cfi_restore 8
 412              		.cfi_def_cfa 2, 16
 413 0180 13010101 		addi	sp,sp,16
 414              		.cfi_def_cfa_offset 0
 415 0184 67800000 		jr	ra
 416              		.cfi_endproc
 417              	.LFE6:
 419              		.align	2
 420              		.globl	_Z9sem_closeP4_sem
 422              	_Z9sem_closeP4_sem:
 423              	.LFB7:
  96:src/syscall_c.cpp **** 
  97:src/syscall_c.cpp **** int sem_close(sem_t handle) {
 424              		.loc 1 97 29 is_stmt 1
 425              		.cfi_startproc
 426              	.LVL26:
 427 0188 130101FF 		addi	sp,sp,-16
GAS LISTING /tmp/ccwNkFux.s 			page 10


 428              		.cfi_def_cfa_offset 16
 429 018c 23348100 		sd	s0,8(sp)
 430              		.cfi_offset 8, -8
 431 0190 13040101 		addi	s0,sp,16
 432              		.cfi_def_cfa 8, 0
  98:src/syscall_c.cpp ****     __asm__ volatile("li a0, 0x22");
 433              		.loc 1 98 5
 434              		.loc 1 98 36 is_stmt 0
 435              	#APP
 436              	# 98 "src/syscall_c.cpp" 1
  99              	    __asm__ volatile("mv a1, %0" : : "r"(handle));
 437              		li a0, 0x22
 438              	# 0 "" 2
 439              		.loc 1 99 5 is_stmt 1
 440              		.loc 1 99 50 is_stmt 0
 441              	# 99 "src/syscall_c.cpp" 1
 100              	    __asm__ volatile("ecall");
 442              		mv a1, a0
 443              	# 0 "" 2
 444              		.loc 1 100 5 is_stmt 1
 445              		.loc 1 100 30 is_stmt 0
 446              	# 100 "src/syscall_c.cpp" 1
 101              	
 102:src/syscall_c.cpp ****     uint64 ret;
 447              		ecall
 448              	# 0 "" 2
 449              		.loc 1 102 5 is_stmt 1
 103:src/syscall_c.cpp ****     __asm__ volatile("mv %0, a0" : "=r"(ret));
 450              		.loc 1 103 5
 451              		.loc 1 103 46 is_stmt 0
 452              	# 103 "src/syscall_c.cpp" 1
 104              	    return (int) ret;
 453              		mv a0, a0
 454              	# 0 "" 2
 455              	.LVL27:
 456              		.loc 1 104 5 is_stmt 1
 105:src/syscall_c.cpp **** }
 457              		.loc 1 105 1 is_stmt 0
 458              	#NO_APP
 459 01a4 1B050500 		sext.w	a0,a0
 460              	.LVL28:
 461 01a8 03348100 		ld	s0,8(sp)
 462              		.cfi_restore 8
 463              		.cfi_def_cfa 2, 16
 464 01ac 13010101 		addi	sp,sp,16
 465              		.cfi_def_cfa_offset 0
 466 01b0 67800000 		jr	ra
 467              		.cfi_endproc
 468              	.LFE7:
 470              		.align	2
 471              		.globl	_Z8sem_waitP4_sem
 473              	_Z8sem_waitP4_sem:
 474              	.LFB8:
 106:src/syscall_c.cpp **** 
 107:src/syscall_c.cpp **** int sem_wait(sem_t id) {
 475              		.loc 1 107 24 is_stmt 1
 476              		.cfi_startproc
GAS LISTING /tmp/ccwNkFux.s 			page 11


 477              	.LVL29:
 478 01b4 130101FF 		addi	sp,sp,-16
 479              		.cfi_def_cfa_offset 16
 480 01b8 23348100 		sd	s0,8(sp)
 481              		.cfi_offset 8, -8
 482 01bc 13040101 		addi	s0,sp,16
 483              		.cfi_def_cfa 8, 0
 108:src/syscall_c.cpp ****     __asm__ volatile("li a0, 0x23");
 484              		.loc 1 108 5
 485              		.loc 1 108 36 is_stmt 0
 486              	#APP
 487              	# 108 "src/syscall_c.cpp" 1
 109              	    __asm__ volatile("mv a1, %0" : : "r"(id));
 488              		li a0, 0x23
 489              	# 0 "" 2
 490              		.loc 1 109 5 is_stmt 1
 491              		.loc 1 109 46 is_stmt 0
 492              	# 109 "src/syscall_c.cpp" 1
 110              	    __asm__ volatile("ecall");
 493              		mv a1, a0
 494              	# 0 "" 2
 495              		.loc 1 110 5 is_stmt 1
 496              		.loc 1 110 30 is_stmt 0
 497              	# 110 "src/syscall_c.cpp" 1
 111              	
 112:src/syscall_c.cpp ****     uint64 ret;
 498              		ecall
 499              	# 0 "" 2
 500              		.loc 1 112 5 is_stmt 1
 113:src/syscall_c.cpp ****     __asm__ volatile("mv %0, a0" : "=r"(ret));
 501              		.loc 1 113 5
 502              		.loc 1 113 46 is_stmt 0
 503              	# 113 "src/syscall_c.cpp" 1
 114              	    return (int) ret;
 504              		mv a0, a0
 505              	# 0 "" 2
 506              	.LVL30:
 507              		.loc 1 114 5 is_stmt 1
 115:src/syscall_c.cpp **** }
 508              		.loc 1 115 1 is_stmt 0
 509              	#NO_APP
 510 01d0 1B050500 		sext.w	a0,a0
 511              	.LVL31:
 512 01d4 03348100 		ld	s0,8(sp)
 513              		.cfi_restore 8
 514              		.cfi_def_cfa 2, 16
 515 01d8 13010101 		addi	sp,sp,16
 516              		.cfi_def_cfa_offset 0
 517 01dc 67800000 		jr	ra
 518              		.cfi_endproc
 519              	.LFE8:
 521              		.align	2
 522              		.globl	_Z10sem_signalP4_sem
 524              	_Z10sem_signalP4_sem:
 525              	.LFB9:
 116:src/syscall_c.cpp **** 
 117:src/syscall_c.cpp **** int sem_signal(sem_t id) {
GAS LISTING /tmp/ccwNkFux.s 			page 12


 526              		.loc 1 117 26 is_stmt 1
 527              		.cfi_startproc
 528              	.LVL32:
 529 01e0 130101FF 		addi	sp,sp,-16
 530              		.cfi_def_cfa_offset 16
 531 01e4 23348100 		sd	s0,8(sp)
 532              		.cfi_offset 8, -8
 533 01e8 13040101 		addi	s0,sp,16
 534              		.cfi_def_cfa 8, 0
 118:src/syscall_c.cpp ****     __asm__ volatile("li a0, 0x24");
 535              		.loc 1 118 5
 536              		.loc 1 118 36 is_stmt 0
 537              	#APP
 538              	# 118 "src/syscall_c.cpp" 1
 119              	    __asm__ volatile("mv a1, %0" : : "r"(id));
 539              		li a0, 0x24
 540              	# 0 "" 2
 541              		.loc 1 119 5 is_stmt 1
 542              		.loc 1 119 46 is_stmt 0
 543              	# 119 "src/syscall_c.cpp" 1
 120              	    __asm__ volatile("ecall");
 544              		mv a1, a0
 545              	# 0 "" 2
 546              		.loc 1 120 5 is_stmt 1
 547              		.loc 1 120 30 is_stmt 0
 548              	# 120 "src/syscall_c.cpp" 1
 121              	
 122:src/syscall_c.cpp ****     uint64 ret;
 549              		ecall
 550              	# 0 "" 2
 551              		.loc 1 122 5 is_stmt 1
 123:src/syscall_c.cpp ****     __asm__ volatile("mv %0, a0" : "=r"(ret));
 552              		.loc 1 123 5
 553              		.loc 1 123 46 is_stmt 0
 554              	# 123 "src/syscall_c.cpp" 1
 124              	    return (int) ret;
 555              		mv a0, a0
 556              	# 0 "" 2
 557              	.LVL33:
 558              		.loc 1 124 5 is_stmt 1
 125:src/syscall_c.cpp **** }
 559              		.loc 1 125 1 is_stmt 0
 560              	#NO_APP
 561 01fc 1B050500 		sext.w	a0,a0
 562              	.LVL34:
 563 0200 03348100 		ld	s0,8(sp)
 564              		.cfi_restore 8
 565              		.cfi_def_cfa 2, 16
 566 0204 13010101 		addi	sp,sp,16
 567              		.cfi_def_cfa_offset 0
 568 0208 67800000 		jr	ra
 569              		.cfi_endproc
 570              	.LFE9:
 572              		.align	2
 573              		.globl	_Z10time_sleepm
 575              	_Z10time_sleepm:
 576              	.LFB10:
GAS LISTING /tmp/ccwNkFux.s 			page 13


 126:src/syscall_c.cpp **** 
 127:src/syscall_c.cpp **** int time_sleep(time_t time) {
 577              		.loc 1 127 29 is_stmt 1
 578              		.cfi_startproc
 579              	.LVL35:
 580 020c 130101FF 		addi	sp,sp,-16
 581              		.cfi_def_cfa_offset 16
 582 0210 23348100 		sd	s0,8(sp)
 583              		.cfi_offset 8, -8
 584 0214 13040101 		addi	s0,sp,16
 585              		.cfi_def_cfa 8, 0
 128:src/syscall_c.cpp ****     __asm__ volatile("li a0, 0x31");
 586              		.loc 1 128 5
 587              		.loc 1 128 36 is_stmt 0
 588              	#APP
 589              	# 128 "src/syscall_c.cpp" 1
 129              	    __asm__ volatile("mv a1, %0" : : "r"(time));
 590              		li a0, 0x31
 591              	# 0 "" 2
 592              		.loc 1 129 5 is_stmt 1
 593              		.loc 1 129 48 is_stmt 0
 594              	# 129 "src/syscall_c.cpp" 1
 130              	    __asm__ volatile("ecall");
 595              		mv a1, a0
 596              	# 0 "" 2
 597              		.loc 1 130 5 is_stmt 1
 598              		.loc 1 130 30 is_stmt 0
 599              	# 130 "src/syscall_c.cpp" 1
 131              	
 132:src/syscall_c.cpp ****     uint64 ret;
 600              		ecall
 601              	# 0 "" 2
 602              		.loc 1 132 5 is_stmt 1
 133:src/syscall_c.cpp ****     __asm__ volatile("mv %0, a0" : "=r"(ret));
 603              		.loc 1 133 5
 604              		.loc 1 133 46 is_stmt 0
 605              	# 133 "src/syscall_c.cpp" 1
 134              	    return (int) ret;
 606              		mv a0, a0
 607              	# 0 "" 2
 608              	.LVL36:
 609              		.loc 1 134 5 is_stmt 1
 135:src/syscall_c.cpp **** }
 610              		.loc 1 135 1 is_stmt 0
 611              	#NO_APP
 612 0228 1B050500 		sext.w	a0,a0
 613              	.LVL37:
 614 022c 03348100 		ld	s0,8(sp)
 615              		.cfi_restore 8
 616              		.cfi_def_cfa 2, 16
 617 0230 13010101 		addi	sp,sp,16
 618              		.cfi_def_cfa_offset 0
 619 0234 67800000 		jr	ra
 620              		.cfi_endproc
 621              	.LFE10:
 623              		.align	2
 624              		.globl	_Z4getcv
GAS LISTING /tmp/ccwNkFux.s 			page 14


 626              	_Z4getcv:
 627              	.LFB11:
 136:src/syscall_c.cpp **** 
 137:src/syscall_c.cpp **** char getc() {
 628              		.loc 1 137 13 is_stmt 1
 629              		.cfi_startproc
 630 0238 130101FF 		addi	sp,sp,-16
 631              		.cfi_def_cfa_offset 16
 632 023c 23348100 		sd	s0,8(sp)
 633              		.cfi_offset 8, -8
 634 0240 13040101 		addi	s0,sp,16
 635              		.cfi_def_cfa 8, 0
 138:src/syscall_c.cpp ****     __asm__ volatile("li a0, 0x41");
 636              		.loc 1 138 5
 637              		.loc 1 138 36 is_stmt 0
 638              	#APP
 639              	# 138 "src/syscall_c.cpp" 1
 139              	    __asm__ volatile("ecall");
 640              		li a0, 0x41
 641              	# 0 "" 2
 642              		.loc 1 139 5 is_stmt 1
 643              		.loc 1 139 30 is_stmt 0
 644              	# 139 "src/syscall_c.cpp" 1
 140              	
 141:src/syscall_c.cpp ****     char ret;
 645              		ecall
 646              	# 0 "" 2
 647              		.loc 1 141 5 is_stmt 1
 142:src/syscall_c.cpp ****     __asm__ volatile("mv %0, a0" : "=r"(ret));
 648              		.loc 1 142 5
 649              		.loc 1 142 46 is_stmt 0
 650              	# 142 "src/syscall_c.cpp" 1
 143              	    return ret;
 651              		mv a0, a0
 652              	# 0 "" 2
 653              	.LVL38:
 654              		.loc 1 143 5 is_stmt 1
 144:src/syscall_c.cpp **** }
 655              		.loc 1 144 1 is_stmt 0
 656              	#NO_APP
 657 0250 1375F50F 		andi	a0,a0,0xff
 658 0254 03348100 		ld	s0,8(sp)
 659              		.cfi_restore 8
 660              		.cfi_def_cfa 2, 16
 661 0258 13010101 		addi	sp,sp,16
 662              		.cfi_def_cfa_offset 0
 663 025c 67800000 		jr	ra
 664              		.cfi_endproc
 665              	.LFE11:
 667              		.align	2
 668              		.globl	_Z4putcc
 670              	_Z4putcc:
 671              	.LFB12:
 145:src/syscall_c.cpp **** 
 146:src/syscall_c.cpp **** void putc(char c) {
 672              		.loc 1 146 19 is_stmt 1
 673              		.cfi_startproc
GAS LISTING /tmp/ccwNkFux.s 			page 15


 674              	.LVL39:
 675 0260 130101FF 		addi	sp,sp,-16
 676              		.cfi_def_cfa_offset 16
 677 0264 23348100 		sd	s0,8(sp)
 678              		.cfi_offset 8, -8
 679 0268 13040101 		addi	s0,sp,16
 680              		.cfi_def_cfa 8, 0
 147:src/syscall_c.cpp ****     __asm__ volatile("mv a1, %0" : : "r"(c));
 681              		.loc 1 147 5
 682              		.loc 1 147 45 is_stmt 0
 683              	#APP
 684              	# 147 "src/syscall_c.cpp" 1
 148              	    __asm__ volatile("li a0, 0x42");
 685              		mv a1, a0
 686              	# 0 "" 2
 687              		.loc 1 148 5 is_stmt 1
 688              		.loc 1 148 36 is_stmt 0
 689              	# 148 "src/syscall_c.cpp" 1
 149              	    __asm__ volatile("ecall");
 690              		li a0, 0x42
 691              	# 0 "" 2
 692              		.loc 1 149 5 is_stmt 1
 693              		.loc 1 149 30 is_stmt 0
 694              	# 149 "src/syscall_c.cpp" 1
 150              	}...
 695              		ecall
 696              	# 0 "" 2
 697              		.loc 1 150 1
 698              	#NO_APP
 699 0278 03348100 		ld	s0,8(sp)
 700              		.cfi_restore 8
 701              		.cfi_def_cfa 2, 16
 702 027c 13010101 		addi	sp,sp,16
 703              		.cfi_def_cfa_offset 0
 704 0280 67800000 		jr	ra
 705              		.cfi_endproc
 706              	.LFE12:
 708              	.Letext0:
 709              		.file 2 "src/../h/../lib/hw.h"
 710              		.file 3 "src/../h/syscall_c.hpp"
GAS LISTING /tmp/ccwNkFux.s 			page 16

