GAS LISTING /tmp/cc59pIgQ.s 			page 1


   1              		.file	"syscall_cpp.cpp"
   2              		.option pic
   3              		.option norelax
   4              		.text
   5              	.Ltext0:
   6              		.section	.text._ZN6Thread3runEv,"axG",@progbits,_ZN6Thread3runEv,comdat
   7              		.align	2
   8              		.weak	_ZN6Thread3runEv
  10              	_ZN6Thread3runEv:
  11              	.LFB0:
  12              		.file 1 "src/../h/syscall_cpp.hpp"
   1:src/../h/syscall_cpp.hpp **** //
   2:src/../h/syscall_cpp.hpp **** // Created by os on 1/3/24.
   3:src/../h/syscall_cpp.hpp **** //
   4:src/../h/syscall_cpp.hpp **** 
   5:src/../h/syscall_cpp.hpp **** #ifndef PROJECT_BASE_SYSCALL_CPP_HPP
   6:src/../h/syscall_cpp.hpp **** #define PROJECT_BASE_SYSCALL_CPP_HPP
   7:src/../h/syscall_cpp.hpp **** 
   8:src/../h/syscall_cpp.hpp **** #include "syscall_c.hpp"
   9:src/../h/syscall_cpp.hpp **** void* operator new (size_t);
  10:src/../h/syscall_cpp.hpp **** void operator delete (void*);
  11:src/../h/syscall_cpp.hpp **** class Thread {
  12:src/../h/syscall_cpp.hpp **** public:
  13:src/../h/syscall_cpp.hpp ****     Thread (void (*body)(void*), void* arg);
  14:src/../h/syscall_cpp.hpp ****     virtual ~Thread ();
  15:src/../h/syscall_cpp.hpp ****     int start ();
  16:src/../h/syscall_cpp.hpp ****     void join();
  17:src/../h/syscall_cpp.hpp ****     static void dispatch ();
  18:src/../h/syscall_cpp.hpp ****     static int sleep (time_t);
  19:src/../h/syscall_cpp.hpp ****     static void bodyWrapper(void *);
  20:src/../h/syscall_cpp.hpp **** protected:
  21:src/../h/syscall_cpp.hpp ****     Thread ();
  22:src/../h/syscall_cpp.hpp ****     virtual void run () {}
  13              		.loc 1 22 18
  14              		.cfi_startproc
  15              	.LVL0:
  16 0000 130101FF 		addi	sp,sp,-16
  17              		.cfi_def_cfa_offset 16
  18 0004 23348100 		sd	s0,8(sp)
  19              		.cfi_offset 8, -8
  20 0008 13040101 		addi	s0,sp,16
  21              		.cfi_def_cfa 8, 0
  22              		.loc 1 22 26 is_stmt 0
  23 000c 03348100 		ld	s0,8(sp)
  24              		.cfi_restore 8
  25              		.cfi_def_cfa 2, 16
  26 0010 13010101 		addi	sp,sp,16
  27              		.cfi_def_cfa_offset 0
  28 0014 67800000 		jr	ra
  29              		.cfi_endproc
  30              	.LFE0:
  32              		.text
  33              		.align	2
  34              		.globl	_ZN6ThreadD2Ev
  36              	_ZN6ThreadD2Ev:
  37              	.LFB13:
  38              		.file 2 "src/syscall_cpp.cpp"
GAS LISTING /tmp/cc59pIgQ.s 			page 2


   1:src/syscall_cpp.cpp **** //
   2:src/syscall_cpp.cpp **** // Created by os on 1/3/24.
   3:src/syscall_cpp.cpp **** //
   4:src/syscall_cpp.cpp **** #include "../h/syscall_cpp.hpp"
   5:src/syscall_cpp.cpp **** #include "../h/syscall_c.hpp"
   6:src/syscall_cpp.cpp **** 
   7:src/syscall_cpp.cpp **** 
   8:src/syscall_cpp.cpp **** void* operator new (size_t size){
   9:src/syscall_cpp.cpp ****     return mem_alloc(size);
  10:src/syscall_cpp.cpp **** }
  11:src/syscall_cpp.cpp **** void operator delete (void* ptr){
  12:src/syscall_cpp.cpp ****     mem_free(ptr);
  13:src/syscall_cpp.cpp **** }
  14:src/syscall_cpp.cpp **** 
  15:src/syscall_cpp.cpp **** void *operator new[](uint64 n){
  16:src/syscall_cpp.cpp ****     return mem_alloc(n);
  17:src/syscall_cpp.cpp **** }
  18:src/syscall_cpp.cpp **** 
  19:src/syscall_cpp.cpp **** void operator delete[](void* ptr) noexcept{
  20:src/syscall_cpp.cpp ****     mem_free(ptr);
  21:src/syscall_cpp.cpp **** }
  22:src/syscall_cpp.cpp **** 
  23:src/syscall_cpp.cpp **** Thread::Thread(void (*body)(void *), void *arg) {
  24:src/syscall_cpp.cpp ****     this->body = body;
  25:src/syscall_cpp.cpp ****     this->arg = arg;
  26:src/syscall_cpp.cpp **** }
  27:src/syscall_cpp.cpp **** Thread::Thread() {
  28:src/syscall_cpp.cpp ****     this->body = nullptr;
  29:src/syscall_cpp.cpp ****     this->arg = nullptr;
  30:src/syscall_cpp.cpp **** }
  31:src/syscall_cpp.cpp **** 
  32:src/syscall_cpp.cpp **** Thread::~Thread() {
  39              		.loc 2 32 1 is_stmt 1
  40              		.cfi_startproc
  41              	.LVL1:
  42 0000 130101FF 		addi	sp,sp,-16
  43              		.cfi_def_cfa_offset 16
  44 0004 23348100 		sd	s0,8(sp)
  45              		.cfi_offset 8, -8
  46 0008 13040101 		addi	s0,sp,16
  47              		.cfi_def_cfa 8, 0
  33:src/syscall_cpp.cpp **** 
  34:src/syscall_cpp.cpp **** }
  48              		.loc 2 34 1 is_stmt 0
  49 000c 03348100 		ld	s0,8(sp)
  50              		.cfi_restore 8
  51              		.cfi_def_cfa 2, 16
  52 0010 13010101 		addi	sp,sp,16
  53              		.cfi_def_cfa_offset 0
  54 0014 67800000 		jr	ra
  55              		.cfi_endproc
  56              	.LFE13:
  58              		.globl	_ZN6ThreadD1Ev
  59              		.set	_ZN6ThreadD1Ev,_ZN6ThreadD2Ev
  60              		.align	2
  61              		.globl	_ZN6Thread11bodyWrapperEPv
  63              	_ZN6Thread11bodyWrapperEPv:
GAS LISTING /tmp/cc59pIgQ.s 			page 3


  64              	.LFB20:
  35:src/syscall_cpp.cpp **** 
  36:src/syscall_cpp.cpp **** int Thread::start() {
  37:src/syscall_cpp.cpp ****     return thread_create(&myHandle, &bodyWrapper, this);
  38:src/syscall_cpp.cpp **** }
  39:src/syscall_cpp.cpp **** 
  40:src/syscall_cpp.cpp **** void Thread::join() {
  41:src/syscall_cpp.cpp ****     thread_join(myHandle);
  42:src/syscall_cpp.cpp **** }
  43:src/syscall_cpp.cpp **** 
  44:src/syscall_cpp.cpp **** void Thread::dispatch() {
  45:src/syscall_cpp.cpp ****     thread_dispatch();
  46:src/syscall_cpp.cpp **** }
  47:src/syscall_cpp.cpp **** 
  48:src/syscall_cpp.cpp **** int Thread::sleep(time_t) {
  49:src/syscall_cpp.cpp ****     return 0;
  50:src/syscall_cpp.cpp **** }
  51:src/syscall_cpp.cpp **** 
  52:src/syscall_cpp.cpp **** void Thread::bodyWrapper(void *arg) {
  65              		.loc 2 52 37 is_stmt 1
  66              		.cfi_startproc
  67              	.LVL2:
  68 0018 130101FF 		addi	sp,sp,-16
  69              		.cfi_def_cfa_offset 16
  70 001c 23341100 		sd	ra,8(sp)
  71 0020 23308100 		sd	s0,0(sp)
  72              		.cfi_offset 1, -8
  73              		.cfi_offset 8, -16
  74 0024 13040101 		addi	s0,sp,16
  75              		.cfi_def_cfa 8, 0
  53:src/syscall_cpp.cpp ****     Thread* thread = (Thread*) arg;
  76              		.loc 2 53 5
  77              	.LVL3:
  54:src/syscall_cpp.cpp ****     if(thread->body)
  78              		.loc 2 54 5
  79              		.loc 2 54 16 is_stmt 0
  80 0028 83370501 		ld	a5,16(a0)
  81              		.loc 2 54 5
  82 002c 638E0700 		beqz	a5,.L6
  55:src/syscall_cpp.cpp ****         thread->body(thread->arg);
  83              		.loc 2 55 9 is_stmt 1
  84              		.loc 2 55 21 is_stmt 0
  85 0030 03358501 		ld	a0,24(a0)
  86              	.LVL4:
  87 0034 E7800700 		jalr	a5
  88              	.LVL5:
  89              	.L5:
  56:src/syscall_cpp.cpp ****     else
  57:src/syscall_cpp.cpp ****         thread->run();
  58:src/syscall_cpp.cpp **** }
  90              		.loc 2 58 1
  91 0038 83308100 		ld	ra,8(sp)
  92              		.cfi_remember_state
  93              		.cfi_restore 1
  94 003c 03340100 		ld	s0,0(sp)
  95              		.cfi_restore 8
  96              		.cfi_def_cfa 2, 16
GAS LISTING /tmp/cc59pIgQ.s 			page 4


  97 0040 13010101 		addi	sp,sp,16
  98              		.cfi_def_cfa_offset 0
  99 0044 67800000 		jr	ra
 100              	.LVL6:
 101              	.L6:
 102              		.cfi_restore_state
  57:src/syscall_cpp.cpp **** }
 103              		.loc 2 57 9 is_stmt 1
  57:src/syscall_cpp.cpp **** }
 104              		.loc 2 57 21 is_stmt 0
 105 0048 83370500 		ld	a5,0(a0)
 106 004c 83B70701 		ld	a5,16(a5)
  57:src/syscall_cpp.cpp **** }
 107              		.loc 2 57 20
 108 0050 E7800700 		jalr	a5
 109              	.LVL7:
 110              		.loc 2 58 1
 111 0054 6FF05FFE 		j	.L5
 112              		.cfi_endproc
 113              	.LFE20:
 115              		.align	2
 116              		.globl	_Znwm
 118              	_Znwm:
 119              	.LFB2:
   8:src/syscall_cpp.cpp ****     return mem_alloc(size);
 120              		.loc 2 8 33 is_stmt 1
 121              		.cfi_startproc
 122              	.LVL8:
 123 0058 130101FF 		addi	sp,sp,-16
 124              		.cfi_def_cfa_offset 16
 125 005c 23341100 		sd	ra,8(sp)
 126 0060 23308100 		sd	s0,0(sp)
 127              		.cfi_offset 1, -8
 128              		.cfi_offset 8, -16
 129 0064 13040101 		addi	s0,sp,16
 130              		.cfi_def_cfa 8, 0
   9:src/syscall_cpp.cpp **** }
 131              		.loc 2 9 5
   9:src/syscall_cpp.cpp **** }
 132              		.loc 2 9 21 is_stmt 0
 133 0068 97000000 		call	_Z9mem_allocm@plt
 133      E7800000 
 134              	.LVL9:
  10:src/syscall_cpp.cpp **** void operator delete (void* ptr){
 135              		.loc 2 10 1
 136 0070 83308100 		ld	ra,8(sp)
 137              		.cfi_restore 1
 138 0074 03340100 		ld	s0,0(sp)
 139              		.cfi_restore 8
 140              		.cfi_def_cfa 2, 16
 141 0078 13010101 		addi	sp,sp,16
 142              		.cfi_def_cfa_offset 0
 143 007c 67800000 		jr	ra
 144              		.cfi_endproc
 145              	.LFE2:
 147              		.align	2
 148              		.globl	_ZdlPv
GAS LISTING /tmp/cc59pIgQ.s 			page 5


 150              	_ZdlPv:
 151              	.LFB3:
  11:src/syscall_cpp.cpp ****     mem_free(ptr);
 152              		.loc 2 11 33 is_stmt 1
 153              		.cfi_startproc
 154              	.LVL10:
 155 0080 130101FF 		addi	sp,sp,-16
 156              		.cfi_def_cfa_offset 16
 157 0084 23341100 		sd	ra,8(sp)
 158 0088 23308100 		sd	s0,0(sp)
 159              		.cfi_offset 1, -8
 160              		.cfi_offset 8, -16
 161 008c 13040101 		addi	s0,sp,16
 162              		.cfi_def_cfa 8, 0
  12:src/syscall_cpp.cpp **** }
 163              		.loc 2 12 5
  12:src/syscall_cpp.cpp **** }
 164              		.loc 2 12 13 is_stmt 0
 165 0090 97000000 		call	_Z8mem_freePv@plt
 165      E7800000 
 166              	.LVL11:
  13:src/syscall_cpp.cpp **** 
 167              		.loc 2 13 1
 168 0098 83308100 		ld	ra,8(sp)
 169              		.cfi_restore 1
 170 009c 03340100 		ld	s0,0(sp)
 171              		.cfi_restore 8
 172              		.cfi_def_cfa 2, 16
 173 00a0 13010101 		addi	sp,sp,16
 174              		.cfi_def_cfa_offset 0
 175 00a4 67800000 		jr	ra
 176              		.cfi_endproc
 177              	.LFE3:
 179              		.align	2
 180              		.globl	_ZN6ThreadD0Ev
 182              	_ZN6ThreadD0Ev:
 183              	.LFB15:
  32:src/syscall_cpp.cpp **** 
 184              		.loc 2 32 1 is_stmt 1
 185              		.cfi_startproc
 186              	.LVL12:
 187 00a8 130101FF 		addi	sp,sp,-16
 188              		.cfi_def_cfa_offset 16
 189 00ac 23341100 		sd	ra,8(sp)
 190 00b0 23308100 		sd	s0,0(sp)
 191              		.cfi_offset 1, -8
 192              		.cfi_offset 8, -16
 193 00b4 13040101 		addi	s0,sp,16
 194              		.cfi_def_cfa 8, 0
  34:src/syscall_cpp.cpp **** 
 195              		.loc 2 34 1 is_stmt 0
 196 00b8 97000000 		call	_ZdlPv
 196      E7800000 
 197              	.LVL13:
 198 00c0 83308100 		ld	ra,8(sp)
 199              		.cfi_restore 1
 200 00c4 03340100 		ld	s0,0(sp)
GAS LISTING /tmp/cc59pIgQ.s 			page 6


 201              		.cfi_restore 8
 202              		.cfi_def_cfa 2, 16
 203 00c8 13010101 		addi	sp,sp,16
 204              		.cfi_def_cfa_offset 0
 205 00cc 67800000 		jr	ra
 206              		.cfi_endproc
 207              	.LFE15:
 209              		.align	2
 210              		.globl	_Znam
 212              	_Znam:
 213              	.LFB4:
  15:src/syscall_cpp.cpp ****     return mem_alloc(n);
 214              		.loc 2 15 31 is_stmt 1
 215              		.cfi_startproc
 216              	.LVL14:
 217 00d0 130101FF 		addi	sp,sp,-16
 218              		.cfi_def_cfa_offset 16
 219 00d4 23341100 		sd	ra,8(sp)
 220 00d8 23308100 		sd	s0,0(sp)
 221              		.cfi_offset 1, -8
 222              		.cfi_offset 8, -16
 223 00dc 13040101 		addi	s0,sp,16
 224              		.cfi_def_cfa 8, 0
  16:src/syscall_cpp.cpp **** }
 225              		.loc 2 16 5
  16:src/syscall_cpp.cpp **** }
 226              		.loc 2 16 21 is_stmt 0
 227 00e0 97000000 		call	_Z9mem_allocm@plt
 227      E7800000 
 228              	.LVL15:
  17:src/syscall_cpp.cpp **** 
 229              		.loc 2 17 1
 230 00e8 83308100 		ld	ra,8(sp)
 231              		.cfi_restore 1
 232 00ec 03340100 		ld	s0,0(sp)
 233              		.cfi_restore 8
 234              		.cfi_def_cfa 2, 16
 235 00f0 13010101 		addi	sp,sp,16
 236              		.cfi_def_cfa_offset 0
 237 00f4 67800000 		jr	ra
 238              		.cfi_endproc
 239              	.LFE4:
 241              		.align	2
 242              		.globl	_ZdaPv
 244              	_ZdaPv:
 245              	.LFB5:
  19:src/syscall_cpp.cpp ****     mem_free(ptr);
 246              		.loc 2 19 43 is_stmt 1
 247              		.cfi_startproc
 248              		.cfi_personality 0x9b,DW.ref.__gxx_personality_v0
 249              		.cfi_lsda 0x1b,.LLSDA5
 250              	.LVL16:
 251 00f8 130101FF 		addi	sp,sp,-16
 252              		.cfi_def_cfa_offset 16
 253 00fc 23341100 		sd	ra,8(sp)
 254 0100 23308100 		sd	s0,0(sp)
 255              		.cfi_offset 1, -8
GAS LISTING /tmp/cc59pIgQ.s 			page 7


 256              		.cfi_offset 8, -16
 257 0104 13040101 		addi	s0,sp,16
 258              		.cfi_def_cfa 8, 0
  20:src/syscall_cpp.cpp **** }
 259              		.loc 2 20 5
  20:src/syscall_cpp.cpp **** }
 260              		.loc 2 20 13 is_stmt 0
 261 0108 97000000 		call	_Z8mem_freePv@plt
 261      E7800000 
 262              	.LVL17:
  21:src/syscall_cpp.cpp **** 
 263              		.loc 2 21 1
 264 0110 83308100 		ld	ra,8(sp)
 265              		.cfi_restore 1
 266 0114 03340100 		ld	s0,0(sp)
 267              		.cfi_restore 8
 268              		.cfi_def_cfa 2, 16
 269 0118 13010101 		addi	sp,sp,16
 270              		.cfi_def_cfa_offset 0
 271 011c 67800000 		jr	ra
 272              		.cfi_endproc
 273              	.LFE5:
 274              		.globl	__gxx_personality_v0
 275              		.section	.gcc_except_table,"a",@progbits
 276              	.LLSDA5:
 277 0000 FF       		.byte	0xff
 278 0001 FF       		.byte	0xff
 279 0002 03       		.byte	0x3
 280 0003 00       		.byte	0
 281              		.text
 283              		.align	2
 284              		.globl	_ZN6ThreadC2EPFvPvES0_
 286              	_ZN6ThreadC2EPFvPvES0_:
 287              	.LFB7:
  23:src/syscall_cpp.cpp ****     this->body = body;
 288              		.loc 2 23 1 is_stmt 1
 289              		.cfi_startproc
 290              	.LVL18:
 291 0120 130101FF 		addi	sp,sp,-16
 292              		.cfi_def_cfa_offset 16
 293 0124 23348100 		sd	s0,8(sp)
 294              		.cfi_offset 8, -8
 295 0128 13040101 		addi	s0,sp,16
 296              		.cfi_def_cfa 8, 0
 297              	.LBB2:
  23:src/syscall_cpp.cpp ****     this->body = body;
 298              		.loc 2 23 47 is_stmt 0
 299 012c 97070000 		lla	a5,_ZTV6Thread+16
 299      93870700 
 300 0134 2330F500 		sd	a5,0(a0)
  24:src/syscall_cpp.cpp ****     this->arg = arg;
 301              		.loc 2 24 5 is_stmt 1
  24:src/syscall_cpp.cpp ****     this->arg = arg;
 302              		.loc 2 24 16 is_stmt 0
 303 0138 2338B500 		sd	a1,16(a0)
  25:src/syscall_cpp.cpp **** }
 304              		.loc 2 25 5 is_stmt 1
GAS LISTING /tmp/cc59pIgQ.s 			page 8


  25:src/syscall_cpp.cpp **** }
 305              		.loc 2 25 15 is_stmt 0
 306 013c 233CC500 		sd	a2,24(a0)
 307              	.LBE2:
  26:src/syscall_cpp.cpp **** Thread::Thread() {
 308              		.loc 2 26 1
 309 0140 03348100 		ld	s0,8(sp)
 310              		.cfi_restore 8
 311              		.cfi_def_cfa 2, 16
 312 0144 13010101 		addi	sp,sp,16
 313              		.cfi_def_cfa_offset 0
 314 0148 67800000 		jr	ra
 315              		.cfi_endproc
 316              	.LFE7:
 318              		.globl	_ZN6ThreadC1EPFvPvES0_
 319              		.set	_ZN6ThreadC1EPFvPvES0_,_ZN6ThreadC2EPFvPvES0_
 320              		.align	2
 321              		.globl	_ZN6ThreadC2Ev
 323              	_ZN6ThreadC2Ev:
 324              	.LFB10:
  27:src/syscall_cpp.cpp ****     this->body = nullptr;
 325              		.loc 2 27 1 is_stmt 1
 326              		.cfi_startproc
 327              	.LVL19:
 328 014c 130101FF 		addi	sp,sp,-16
 329              		.cfi_def_cfa_offset 16
 330 0150 23348100 		sd	s0,8(sp)
 331              		.cfi_offset 8, -8
 332 0154 13040101 		addi	s0,sp,16
 333              		.cfi_def_cfa 8, 0
 334              	.LBB3:
  27:src/syscall_cpp.cpp ****     this->body = nullptr;
 335              		.loc 2 27 16 is_stmt 0
 336 0158 97070000 		lla	a5,_ZTV6Thread+16
 336      93870700 
 337 0160 2330F500 		sd	a5,0(a0)
  28:src/syscall_cpp.cpp ****     this->arg = nullptr;
 338              		.loc 2 28 5 is_stmt 1
  28:src/syscall_cpp.cpp ****     this->arg = nullptr;
 339              		.loc 2 28 16 is_stmt 0
 340 0164 23380500 		sd	zero,16(a0)
  29:src/syscall_cpp.cpp **** }
 341              		.loc 2 29 5 is_stmt 1
  29:src/syscall_cpp.cpp **** }
 342              		.loc 2 29 15 is_stmt 0
 343 0168 233C0500 		sd	zero,24(a0)
 344              	.LBE3:
  30:src/syscall_cpp.cpp **** 
 345              		.loc 2 30 1
 346 016c 03348100 		ld	s0,8(sp)
 347              		.cfi_restore 8
 348              		.cfi_def_cfa 2, 16
 349 0170 13010101 		addi	sp,sp,16
 350              		.cfi_def_cfa_offset 0
 351 0174 67800000 		jr	ra
 352              		.cfi_endproc
 353              	.LFE10:
GAS LISTING /tmp/cc59pIgQ.s 			page 9


 355              		.globl	_ZN6ThreadC1Ev
 356              		.set	_ZN6ThreadC1Ev,_ZN6ThreadC2Ev
 357              		.align	2
 358              		.globl	_ZN6Thread5startEv
 360              	_ZN6Thread5startEv:
 361              	.LFB16:
  36:src/syscall_cpp.cpp ****     return thread_create(&myHandle, &bodyWrapper, this);
 362              		.loc 2 36 21 is_stmt 1
 363              		.cfi_startproc
 364              	.LVL20:
 365 0178 130101FF 		addi	sp,sp,-16
 366              		.cfi_def_cfa_offset 16
 367 017c 23341100 		sd	ra,8(sp)
 368 0180 23308100 		sd	s0,0(sp)
 369              		.cfi_offset 1, -8
 370              		.cfi_offset 8, -16
 371 0184 13040101 		addi	s0,sp,16
 372              		.cfi_def_cfa 8, 0
  37:src/syscall_cpp.cpp **** }
 373              		.loc 2 37 5
  37:src/syscall_cpp.cpp **** }
 374              		.loc 2 37 25 is_stmt 0
 375 0188 13060500 		mv	a2,a0
 376 018c 97050000 		lla	a1,_ZN6Thread11bodyWrapperEPv
 376      93850500 
 377 0194 13058500 		addi	a0,a0,8
 378              	.LVL21:
 379 0198 97000000 		call	_Z13thread_createPP3TCBPFvPvES2_@plt
 379      E7800000 
 380              	.LVL22:
  38:src/syscall_cpp.cpp **** 
 381              		.loc 2 38 1
 382 01a0 83308100 		ld	ra,8(sp)
 383              		.cfi_restore 1
 384 01a4 03340100 		ld	s0,0(sp)
 385              		.cfi_restore 8
 386              		.cfi_def_cfa 2, 16
 387 01a8 13010101 		addi	sp,sp,16
 388              		.cfi_def_cfa_offset 0
 389 01ac 67800000 		jr	ra
 390              		.cfi_endproc
 391              	.LFE16:
 393              		.align	2
 394              		.globl	_ZN6Thread4joinEv
 396              	_ZN6Thread4joinEv:
 397              	.LFB17:
  40:src/syscall_cpp.cpp ****     thread_join(myHandle);
 398              		.loc 2 40 21 is_stmt 1
 399              		.cfi_startproc
 400              	.LVL23:
 401 01b0 130101FF 		addi	sp,sp,-16
 402              		.cfi_def_cfa_offset 16
 403 01b4 23341100 		sd	ra,8(sp)
 404 01b8 23308100 		sd	s0,0(sp)
 405              		.cfi_offset 1, -8
 406              		.cfi_offset 8, -16
 407 01bc 13040101 		addi	s0,sp,16
GAS LISTING /tmp/cc59pIgQ.s 			page 10


 408              		.cfi_def_cfa 8, 0
  41:src/syscall_cpp.cpp **** }
 409              		.loc 2 41 5
  41:src/syscall_cpp.cpp **** }
 410              		.loc 2 41 16 is_stmt 0
 411 01c0 03358500 		ld	a0,8(a0)
 412              	.LVL24:
 413 01c4 97000000 		call	_Z11thread_joinP3TCB@plt
 413      E7800000 
 414              	.LVL25:
  42:src/syscall_cpp.cpp **** 
 415              		.loc 2 42 1
 416 01cc 83308100 		ld	ra,8(sp)
 417              		.cfi_restore 1
 418 01d0 03340100 		ld	s0,0(sp)
 419              		.cfi_restore 8
 420              		.cfi_def_cfa 2, 16
 421 01d4 13010101 		addi	sp,sp,16
 422              		.cfi_def_cfa_offset 0
 423 01d8 67800000 		jr	ra
 424              		.cfi_endproc
 425              	.LFE17:
 427              		.align	2
 428              		.globl	_ZN6Thread8dispatchEv
 430              	_ZN6Thread8dispatchEv:
 431              	.LFB18:
  44:src/syscall_cpp.cpp ****     thread_dispatch();
 432              		.loc 2 44 25 is_stmt 1
 433              		.cfi_startproc
 434 01dc 130101FF 		addi	sp,sp,-16
 435              		.cfi_def_cfa_offset 16
 436 01e0 23341100 		sd	ra,8(sp)
 437 01e4 23308100 		sd	s0,0(sp)
 438              		.cfi_offset 1, -8
 439              		.cfi_offset 8, -16
 440 01e8 13040101 		addi	s0,sp,16
 441              		.cfi_def_cfa 8, 0
  45:src/syscall_cpp.cpp **** }
 442              		.loc 2 45 5
  45:src/syscall_cpp.cpp **** }
 443              		.loc 2 45 20 is_stmt 0
 444 01ec 97000000 		call	_Z15thread_dispatchv@plt
 444      E7800000 
 445              	.LVL26:
  46:src/syscall_cpp.cpp **** 
 446              		.loc 2 46 1
 447 01f4 83308100 		ld	ra,8(sp)
 448              		.cfi_restore 1
 449 01f8 03340100 		ld	s0,0(sp)
 450              		.cfi_restore 8
 451              		.cfi_def_cfa 2, 16
 452 01fc 13010101 		addi	sp,sp,16
 453              		.cfi_def_cfa_offset 0
 454 0200 67800000 		jr	ra
 455              		.cfi_endproc
 456              	.LFE18:
 458              		.align	2
GAS LISTING /tmp/cc59pIgQ.s 			page 11


 459              		.globl	_ZN6Thread5sleepEm
 461              	_ZN6Thread5sleepEm:
 462              	.LFB19:
  48:src/syscall_cpp.cpp ****     return 0;
 463              		.loc 2 48 27 is_stmt 1
 464              		.cfi_startproc
 465 0204 130101FF 		addi	sp,sp,-16
 466              		.cfi_def_cfa_offset 16
 467 0208 23348100 		sd	s0,8(sp)
 468              		.cfi_offset 8, -8
 469 020c 13040101 		addi	s0,sp,16
 470              		.cfi_def_cfa 8, 0
  49:src/syscall_cpp.cpp **** }
 471              		.loc 2 49 5
  50:src/syscall_cpp.cpp **** 
 472              		.loc 2 50 1 is_stmt 0
 473 0210 13050000 		li	a0,0
 474 0214 03348100 		ld	s0,8(sp)
 475              		.cfi_restore 8
 476              		.cfi_def_cfa 2, 16
 477 0218 13010101 		addi	sp,sp,16
 478              		.cfi_def_cfa_offset 0
 479 021c 67800000 		jr	ra
 480              		.cfi_endproc
 481              	.LFE19:
 483              		.weak	_ZTV6Thread
 484              		.section	.data.rel.ro.local._ZTV6Thread,"awG",@progbits,_ZTV6Thread,comdat
 485              		.align	3
 488              	_ZTV6Thread:
 489 0000 00000000 		.dword	0
 489      00000000 
 490 0008 00000000 		.dword	0
 490      00000000 
 491 0010 00000000 		.dword	_ZN6ThreadD1Ev
 491      00000000 
 492 0018 00000000 		.dword	_ZN6ThreadD0Ev
 492      00000000 
 493 0020 00000000 		.dword	_ZN6Thread3runEv
 493      00000000 
 494              		.text
 495              	.Letext0:
 496              		.file 3 "src/../h/../lib/hw.h"
 497              		.file 4 "src/../h/syscall_c.hpp"
 2397              		.align	3
 2400              	DW.ref.__gxx_personality_v0:
 2401 0000 00000000 		.dword	__gxx_personality_v0
 2401      00000000 
 2402              		.ident	"GCC: (Ubuntu 9.4.0-1ubuntu1~20.04) 9.4.0"
 2403              		.section	.note.GNU-stack,"",@progbits
GAS LISTING /tmp/cc59pIgQ.s 			page 12

